Microsoft (R) COFF/PE Dumper Version 14.00.24215.1
Copyright (C) Microsoft Corporation.  All rights reserved.


Dump of file ts-logging.dll

File Type: DLL

  Section contains the following exports for ts-logging.dll

    00000000 characteristics
    5DB2BB2D time date stamp Fri Oct 25 05:06:53 2019
        0.00 version
           1 ordinal base
          89 number of functions
          89 number of names

    ordinal hint RVA      name

          1    0 000015D8 _ZN6Logger3AddEPS_
          2    1 000016A0 _ZN6Logger3LogE5LevelPKcRKNSt7__cxx1112basic_stringIcSt11char_traitsIcESaIcEEE
          3    2 00001812 _ZN6Logger3LogE5LevelPKcS2_z
          4    3 00001620 _ZN6Logger3LogERKNSt7__cxx1112basic_stringIcSt11char_traitsIcESaIcEEE
          5    4 0000E01C _ZN6Logger8s_loggerE
          6    5 00007E58 _ZN6LoggerC2Ev
          7    6 000015FC _ZN6LoggerD1Ev
          8    7 000015FC _ZN6LoggerD2Ev
          9    8 00007E7C _ZN7LoggerC3LogERKNSt7__cxx1112basic_stringIcSt11char_traitsIcESaIcEEE
         10    9 00001964 _ZN7LoggerCC1EPKc
         11    A 00001964 _ZN7LoggerCC2EPKc
         12    B 00007EB0 _ZN7LoggerF3LogERKNSt7__cxx1112basic_stringIcSt11char_traitsIcESaIcEEE
         13    C 00001AB0 _ZN7LoggerFC1EPKc = __ZNSt7__cxx1112basic_stringIcSt11char_traitsIcESaIcEEC1EPKcRKS3_
         14    D 00001A90 _ZN7LoggerFC1Ev = __ZNSt8ios_base4InitD1Ev
         15    E 00001AB0 _ZN7LoggerFC2EPKc = __ZNSt7__cxx1112basic_stringIcSt11char_traitsIcESaIcEEC1EPKcRKS3_
         16    F 00001A90 _ZN7LoggerFC2Ev = __ZNSt8ios_base4InitD1Ev
         17   10 00001BBC _ZN7LoggerFD1Ev
         18   11 00001BBC _ZN7LoggerFD2Ev
         19   12 00007EF0 _ZN9__gnu_cxx13new_allocatorIP6LoggerE10deallocateEPS2_j
         20   13 00007F0C _ZN9__gnu_cxx13new_allocatorIP6LoggerE7destroyIS2_EEvPT_
         21   14 00007F1C _ZN9__gnu_cxx13new_allocatorIP6LoggerE8allocateEjPKv
         22   15 00007F50 _ZN9__gnu_cxx13new_allocatorIP6LoggerE9constructIS2_JRKS2_EEEvPT_DpOT0_
         23   16 00007F8C _ZN9__gnu_cxx13new_allocatorIP6LoggerEC2Ev
         24   17 00007F98 _ZN9__gnu_cxx13new_allocatorIP6LoggerED2Ev
         25   18 00007FA4 _ZN9__gnu_cxx17__normal_iteratorIPP6LoggerSt6vectorIS2_SaIS2_EEEC1ERKS3_
         26   19 00007FBC _ZN9__gnu_cxx17__normal_iteratorIPP6LoggerSt6vectorIS2_SaIS2_EEEppEv
         27   1A 00007FD8 _ZN9__gnu_cxxneIPP6LoggerSt6vectorIS2_SaIS2_EEEEbRKNS_17__normal_iteratorIT_T0_EESC_
         28   1B 00008000 _ZNK9__gnu_cxx13new_allocatorIP6LoggerE8max_sizeEv
         29   1C 00008010 _ZNK9__gnu_cxx17__normal_iteratorIPP6LoggerSt6vectorIS2_SaIS2_EEE4baseEv
         30   1D 00008020 _ZNK9__gnu_cxx17__normal_iteratorIPP6LoggerSt6vectorIS2_SaIS2_EEEdeEv
         31   1E 00008030 _ZNKSt12_Vector_baseIP6LoggerSaIS1_EE19_M_get_Tp_allocatorEv
         32   1F 00008040 _ZNKSt13move_iteratorIPP6LoggerE4baseEv
         33   20 00008050 _ZNKSt6vectorIP6LoggerSaIS1_EE12_M_check_lenEjPKc
         34   21 000080F4 _ZNKSt6vectorIP6LoggerSaIS1_EE4sizeEv
         35   22 00008114 _ZNKSt6vectorIP6LoggerSaIS1_EE8max_sizeEv
         36   23 00008134 _ZNSaIP6LoggerEC2Ev
         37   24 0000814C _ZNSaIP6LoggerED2Ev
         38   25 00008164 _ZNSt10_Iter_baseIPP6LoggerLb0EE7_S_baseES2_
         39   26 0000816C _ZNSt10_Iter_baseISt13move_iteratorIPP6LoggerELb1EE7_S_baseES4_
         40   27 0000817C _ZNSt11__copy_moveILb1ELb1ESt26random_access_iterator_tagE8__copy_mIP6LoggerEEPT_PKS5_S8_S6_
         41   28 000081C8 _ZNSt12_Destroy_auxILb1EE9__destroyIPP6LoggerEEvT_S5_
         42   29 000081D0 _ZNSt12_Vector_baseIP6LoggerSaIS1_EE11_M_allocateEj
         43   2A 000081FC _ZNSt12_Vector_baseIP6LoggerSaIS1_EE12_Vector_implC1Ev
         44   2B 00008230 _ZNSt12_Vector_baseIP6LoggerSaIS1_EE12_Vector_implD1Ev
         45   2C 00008248 _ZNSt12_Vector_baseIP6LoggerSaIS1_EE13_M_deallocateEPS1_j
         46   2D 00008278 _ZNSt12_Vector_baseIP6LoggerSaIS1_EE19_M_get_Tp_allocatorEv
         47   2E 00008288 _ZNSt12_Vector_baseIP6LoggerSaIS1_EEC2Ev
         48   2F 000082A0 _ZNSt12_Vector_baseIP6LoggerSaIS1_EED2Ev
         49   30 000082E8 _ZNSt13move_iteratorIPP6LoggerEC1ES2_
         50   31 00008300 _ZNSt16allocator_traitsISaIP6LoggerEE10_S_destroyIS1_EENSt9enable_ifIXsrSt6__and_IJNS3_16__destroy_helperIT_E4typeEEE5valueEvE4typeERS2_PS8_
         51   32 0000831C _ZNSt16allocator_traitsISaIP6LoggerEE10deallocateERS2_PS1_j
         52   33 00008340 _ZNSt16allocator_traitsISaIP6LoggerEE11_S_max_sizeIKS2_vEEjRT_i
         53   34 00008350 _ZNSt16allocator_traitsISaIP6LoggerEE12_S_constructIS1_JRKS1_EEENSt9enable_ifIXsrSt6__and_IJNS3_18__construct_helperIT_JDpT0_EE4typeEEE5valueEvE4typeERS2_PSA_DpOSB_
         54   35 0000837C _ZNSt16allocator_traitsISaIP6LoggerEE7destroyIS1_EEvRS2_PT_
         55   36 00008398 _ZNSt16allocator_traitsISaIP6LoggerEE8allocateERS2_j
         56   37 000083BC _ZNSt16allocator_traitsISaIP6LoggerEE8max_sizeERKS2_
         57   38 000083D8 _ZNSt16allocator_traitsISaIP6LoggerEE9constructIS1_JRKS1_EEEDTcl12_S_constructfp_fp0_spcl7forwardIT0_Efp1_EEERS2_PT_DpOS7_
         58   39 00008404 _ZNSt20__uninitialized_copyILb1EE13__uninit_copyISt13move_iteratorIPP6LoggerES5_EET0_T_S8_S7_
         59   3A 00008428 _ZNSt6vectorIP6LoggerSaIS1_EE19_M_emplace_back_auxIJRKS1_EEEvDpOT_
         60   3B 000085EC _ZNSt6vectorIP6LoggerSaIS1_EE3endEv
         61   3C 00008610 _ZNSt6vectorIP6LoggerSaIS1_EE5beginEv
         62   3D 00008634 _ZNSt6vectorIP6LoggerSaIS1_EE9push_backERKS1_
         63   3E 00008694 _ZNSt6vectorIP6LoggerSaIS1_EEC1Ev
         64   3F 000086AC _ZNSt6vectorIP6LoggerSaIS1_EED1Ev
         65   40 000086EC _ZSt12__miter_baseISt13move_iteratorIPP6LoggerEENSt11_Miter_baseIT_E13iterator_typeES6_
         66   41 00008700 _ZSt12__niter_baseIPP6LoggerENSt11_Niter_baseIT_E13iterator_typeES4_
         67   42 00008714 _ZSt13__copy_move_aILb1EPP6LoggerS2_ET1_T0_S4_S3_
         68   43 0000873C _ZSt14__copy_move_a2ILb1EPP6LoggerS2_ET1_T0_S4_S3_
         69   44 00008780 _ZSt18uninitialized_copyISt13move_iteratorIPP6LoggerES3_ET0_T_S6_S5_
         70   45 000087A8 _ZSt22__uninitialized_copy_aISt13move_iteratorIPP6LoggerES3_S2_ET0_T_S6_S5_RSaIT1_E
         71   46 000087CC _ZSt32__make_move_if_noexcept_iteratorIPP6LoggerSt13move_iteratorIS2_EET0_T_
         72   47 000087EC _ZSt34__uninitialized_move_if_noexcept_aIPP6LoggerS2_SaIS1_EET0_T_S5_S4_RT1_
         73   48 00008830 _ZSt3maxIjERKT_S2_S2_
         74   49 0000884C _ZSt4copyISt13move_iteratorIPP6LoggerES3_ET0_T_S6_S5_
         75   4A 00008888 _ZSt7forwardIRKP6LoggerEOT_RNSt16remove_referenceIS4_E4typeE
         76   4B 00008890 _ZSt8_DestroyIPP6LoggerEvT_S3_
         77   4C 000088AC _ZSt8_DestroyIPP6LoggerS1_EvT_S3_RSaIT0_E
         78   4D 0000A5F8 _ZTI6Logger
         79   4E 0000A600 _ZTI7LoggerC
         80   4F 0000A60C _ZTI7LoggerF
         81   50 0000A618 _ZTS6Logger
         82   51 0000A620 _ZTS7LoggerC
         83   52 0000A62C _ZTS7LoggerF
         84   53 0000A638 _ZTV6Logger
         85   54 0000A644 _ZTV7LoggerC
         86   55 0000A650 _ZTV7LoggerF
         87   56 000088C8 _ZnwjPv
         88   57 00007CA0 _lock_file
         89   58 00007D00 _unlock_file

  Summary

        1000 .CRT
        1000 .bss
        1000 .data
        2000 .debug_abbrev
        1000 .debug_aranges
        1000 .debug_frame
       2B000 .debug_info
        2000 .debug_line
        1000 .debug_ranges
        2000 .debug_str
        2000 .edata
        3000 .eh_frame
        1000 .idata
        1000 .rdata
        1000 .reloc
        8000 .text
        1000 .tls
